(dp0
S"Do you know what it is , and where I can get one ? We suspect you had seen the Terrex Autospade , which is made by Wolf Tools . It is quite a hefty spade , with bicycle - type handlebars and a sprung lever at the rear , which you step on to activate it . Used correctly , you should n't have to bend your back during general digging , although it wo n't lift out the soil and put in a barrow if you need to move it ! If gardening tends to give you backache , remember to take plenty of rest periods during the day , and never try to lift more than you can easily cope with ."
p1
(lp2
(dp3
S'tag'
p4
S'TOP'
p5
sS'word'
p6
NsS'rel'
p7
g5
sS'deps'
p8
(lp9
I2
asS'address'
p10
I0
sa(dp11
S'head'
p12
I2
sg6
S'Do'
p13
sg7
S'SUBJ'
p14
sg4
S'NN'
p15
sg8
(lp16
sg10
I1
sa(dp17
g12
I0
sg6
S'you'
p18
sg7
S'ROOT'
p19
sg4
S'NN'
p20
sg8
(lp21
I1
aI125
asg10
I2
sa(dp22
g12
I4
sg6
S'know'
p23
sg7
S'SPEC'
p24
sg4
S'NN'
p25
sg8
(lp26
sg10
I3
sa(dp27
g12
I5
sg6
S'what'
p28
sg7
S'SPEC'
p29
sg4
S'NN'
p30
sg8
(lp31
I3
asg10
I4
sa(dp32
g12
I6
sg6
S'it'
p33
sg7
S'SPEC'
p34
sg4
S'NN'
p35
sg8
(lp36
I4
asg10
I5
sa(dp37
g12
I7
sg6
S'is'
p38
sg7
S'SPEC'
p39
sg4
S'NNS'
p40
sg8
(lp41
I5
asg10
I6
sa(dp42
g12
I8
sg6
S','
p43
sg7
S'SPEC'
p44
sg4
S'NN'
p45
sg8
(lp46
I6
asg10
I7
sa(dp47
g12
I9
sg6
S'and'
p48
sg7
S'SPEC'
p49
sg4
S'NN'
p50
sg8
(lp51
I7
asg10
I8
sa(dp52
g12
I10
sg6
S'where'
p53
sg7
S'SPEC'
p54
sg4
S'NN'
p55
sg8
(lp56
I8
asg10
I9
sa(dp57
g12
I11
sg6
S'I'
p58
sg7
S'SPEC'
p59
sg4
S'NN'
p60
sg8
(lp61
I9
asg10
I10
sa(dp62
g12
I12
sg6
S'can'
p63
sg7
S'SPEC'
p64
sg4
S'NN'
p65
sg8
(lp66
I10
asg10
I11
sa(dp67
g12
I13
sg6
S'get'
p68
sg7
S'SPEC'
p69
sg4
S'NN'
p70
sg8
(lp71
I11
asg10
I12
sa(dp72
g12
I14
sg6
S'one'
p73
sg7
S'SPEC'
p74
sg4
S'NN'
p75
sg8
(lp76
I12
asg10
I13
sa(dp77
g12
I15
sg6
S'?'
p78
sg7
S'SPEC'
p79
sg4
S'NN'
p80
sg8
(lp81
I13
asg10
I14
sa(dp82
g12
I16
sg6
S'We'
p83
sg7
S'SPEC'
p84
sg4
S'NN'
p85
sg8
(lp86
I14
asg10
I15
sa(dp87
g12
I17
sg6
S'suspect'
p88
sg7
S'SPEC'
p89
sg4
S'NN'
p90
sg8
(lp91
I15
asg10
I16
sa(dp92
g12
I18
sg6
S'you'
p93
sg7
S'SPEC'
p94
sg4
S'NN'
p95
sg8
(lp96
I16
asg10
I17
sa(dp97
g12
I19
sg6
S'had'
p98
sg7
S'SPEC'
p99
sg4
S'NN'
p100
sg8
(lp101
I17
asg10
I18
sa(dp102
g12
I20
sg6
S'seen'
p103
sg7
S'SPEC'
p104
sg4
S'NN'
p105
sg8
(lp106
I18
asg10
I19
sa(dp107
g12
I21
sg6
S'the'
p108
sg7
S'SPEC'
p109
sg4
S'AT'
p110
sg8
(lp111
I19
asg10
I20
sa(dp112
g12
I22
sg6
S'Terrex'
p113
sg7
S'SPEC'
p114
sg4
S'NN'
p115
sg8
(lp116
I20
asg10
I21
sa(dp117
g12
I23
sg6
S'Autospade'
p118
sg7
S'SPEC'
p119
sg4
S'NN'
p120
sg8
(lp121
I21
asg10
I22
sa(dp122
g12
I24
sg6
g43
sg7
S'SPEC'
p123
sg4
S'NN'
p124
sg8
(lp125
I22
asg10
I23
sa(dp126
g12
I25
sg6
S'which'
p127
sg7
S'SPEC'
p128
sg4
S'NN'
p129
sg8
(lp130
I23
asg10
I24
sa(dp131
g12
I26
sg6
S'is'
p132
sg7
S'SPEC'
p133
sg4
S'NNS'
p134
sg8
(lp135
I24
asg10
I25
sa(dp136
g12
I27
sg6
S'made'
p137
sg7
S'SPEC'
p138
sg4
S'NN'
p139
sg8
(lp140
I25
asg10
I26
sa(dp141
g12
I28
sg6
S'by'
p142
sg7
S'SPEC'
p143
sg4
S'NN'
p144
sg8
(lp145
I26
asg10
I27
sa(dp146
g12
I29
sg6
S'Wolf'
p147
sg7
S'SPEC'
p148
sg4
S'NN'
p149
sg8
(lp150
I27
asg10
I28
sa(dp151
g12
I30
sg6
S'Tools'
p152
sg7
S'SPEC'
p153
sg4
S'NNS'
p154
sg8
(lp155
I28
asg10
I29
sa(dp156
g12
I31
sg6
S'.'
p157
sg7
S'SPEC'
p158
sg4
S'NN'
p159
sg8
(lp160
I29
asg10
I30
sa(dp161
g12
I32
sg6
S'It'
p162
sg7
S'SPEC'
p163
sg4
S'NN'
p164
sg8
(lp165
I30
asg10
I31
sa(dp166
g12
I33
sg6
S'is'
p167
sg7
S'SPEC'
p168
sg4
S'NNS'
p169
sg8
(lp170
I31
asg10
I32
sa(dp171
g12
I34
sg6
S'quite'
p172
sg7
S'SPEC'
p173
sg4
S'NN'
p174
sg8
(lp175
I32
asg10
I33
sa(dp176
g12
I35
sg6
S'a'
p177
sg7
S'SPEC'
p178
sg4
S'AT'
p179
sg8
(lp180
I33
asg10
I34
sa(dp181
g12
I36
sg6
S'hefty'
p182
sg7
S'SPEC'
p183
sg4
S'NN'
p184
sg8
(lp185
I34
asg10
I35
sa(dp186
g12
I37
sg6
S'spade'
p187
sg7
S'SPEC'
p188
sg4
S'NN'
p189
sg8
(lp190
I35
asg10
I36
sa(dp191
g12
I38
sg6
g43
sg7
S'SPEC'
p192
sg4
S'NN'
p193
sg8
(lp194
I36
asg10
I37
sa(dp195
g12
I39
sg6
S'with'
p196
sg7
S'SPEC'
p197
sg4
S'NN'
p198
sg8
(lp199
I37
asg10
I38
sa(dp200
g12
I40
sg6
S'bicycle'
p201
sg7
S'SPEC'
p202
sg4
S'NN'
p203
sg8
(lp204
I38
asg10
I39
sa(dp205
g12
I41
sg6
S'-'
p206
sg7
S'SPEC'
p207
sg4
S'NN'
p208
sg8
(lp209
I39
asg10
I40
sa(dp210
g12
I42
sg6
S'type'
p211
sg7
S'SPEC'
p212
sg4
S'NN'
p213
sg8
(lp214
I40
asg10
I41
sa(dp215
g12
I43
sg6
S'handlebars'
p216
sg7
S'SPEC'
p217
sg4
S'NNS'
p218
sg8
(lp219
I41
asg10
I42
sa(dp220
g12
I44
sg6
S'and'
p221
sg7
S'SPEC'
p222
sg4
S'NN'
p223
sg8
(lp224
I42
asg10
I43
sa(dp225
g12
I45
sg6
g177
sg7
S'SPEC'
p226
sg4
S'AT'
p227
sg8
(lp228
I43
asg10
I44
sa(dp229
g12
I46
sg6
S'sprung'
p230
sg7
S'SPEC'
p231
sg4
S'NN'
p232
sg8
(lp233
I44
asg10
I45
sa(dp234
g12
I47
sg6
S'lever'
p235
sg7
S'SPEC'
p236
sg4
S'NN'
p237
sg8
(lp238
I45
asg10
I46
sa(dp239
g12
I48
sg6
S'at'
p240
sg7
S'SPEC'
p241
sg4
S'NN'
p242
sg8
(lp243
I46
asg10
I47
sa(dp244
g12
I49
sg6
S'the'
p245
sg7
S'SPEC'
p246
sg4
S'AT'
p247
sg8
(lp248
I47
asg10
I48
sa(dp249
g12
I50
sg6
S'rear'
p250
sg7
S'SPEC'
p251
sg4
S'NN'
p252
sg8
(lp253
I48
asg10
I49
sa(dp254
g12
I51
sg6
g43
sg7
S'SPEC'
p255
sg4
S'NN'
p256
sg8
(lp257
I49
asg10
I50
sa(dp258
g12
I52
sg6
S'which'
p259
sg7
S'SPEC'
p260
sg4
S'NN'
p261
sg8
(lp262
I50
asg10
I51
sa(dp263
g12
I53
sg6
S'you'
p264
sg7
S'SPEC'
p265
sg4
S'NN'
p266
sg8
(lp267
I51
asg10
I52
sa(dp268
g12
I54
sg6
S'step'
p269
sg7
S'SPEC'
p270
sg4
S'NN'
p271
sg8
(lp272
I52
asg10
I53
sa(dp273
g12
I55
sg6
S'on'
p274
sg7
S'SPEC'
p275
sg4
S'NN'
p276
sg8
(lp277
I53
asg10
I54
sa(dp278
g12
I56
sg6
S'to'
p279
sg7
S'SPEC'
p280
sg4
S'NN'
p281
sg8
(lp282
I54
asg10
I55
sa(dp283
g12
I57
sg6
S'activate'
p284
sg7
S'SPEC'
p285
sg4
S'NN'
p286
sg8
(lp287
I55
asg10
I56
sa(dp288
g12
I58
sg6
S'it'
p289
sg7
S'SPEC'
p290
sg4
S'NN'
p291
sg8
(lp292
I56
asg10
I57
sa(dp293
g12
I59
sg6
g157
sg7
S'SPEC'
p294
sg4
S'NN'
p295
sg8
(lp296
I57
asg10
I58
sa(dp297
g12
I60
sg6
S'Used'
p298
sg7
S'SPEC'
p299
sg4
S'VBD'
p300
sg8
(lp301
I58
asg10
I59
sa(dp302
g12
I61
sg6
S'correctly'
p303
sg7
S'SPEC'
p304
sg4
S'RB'
p305
sg8
(lp306
I59
asg10
I60
sa(dp307
g12
I62
sg6
g43
sg7
S'SPEC'
p308
sg4
S'NN'
p309
sg8
(lp310
I60
asg10
I61
sa(dp311
g12
I63
sg6
S'you'
p312
sg7
S'SPEC'
p313
sg4
S'NN'
p314
sg8
(lp315
I61
asg10
I62
sa(dp316
g12
I64
sg6
S'should'
p317
sg7
S'SPEC'
p318
sg4
S'NN'
p319
sg8
(lp320
I62
asg10
I63
sa(dp321
g12
I65
sg6
S"n't"
p322
sg7
S'SPEC'
p323
sg4
S'NN'
p324
sg8
(lp325
I63
asg10
I64
sa(dp326
g12
I66
sg6
S'have'
p327
sg7
S'SPEC'
p328
sg4
S'NN'
p329
sg8
(lp330
I64
asg10
I65
sa(dp331
g12
I67
sg6
S'to'
p332
sg7
S'SPEC'
p333
sg4
S'NN'
p334
sg8
(lp335
I65
asg10
I66
sa(dp336
g12
I68
sg6
S'bend'
p337
sg7
S'SPEC'
p338
sg4
S'NN'
p339
sg8
(lp340
I66
asg10
I67
sa(dp341
g12
I69
sg6
S'your'
p342
sg7
S'SPEC'
p343
sg4
S'NN'
p344
sg8
(lp345
I67
asg10
I68
sa(dp346
g12
I70
sg6
S'back'
p347
sg7
S'SPEC'
p348
sg4
S'NN'
p349
sg8
(lp350
I68
asg10
I69
sa(dp351
g12
I71
sg6
S'during'
p352
sg7
S'SPEC'
p353
sg4
S'VBG'
p354
sg8
(lp355
I69
asg10
I70
sa(dp356
g12
I72
sg6
S'general'
p357
sg7
S'SPEC'
p358
sg4
S'NN'
p359
sg8
(lp360
I70
asg10
I71
sa(dp361
g12
I73
sg6
S'digging'
p362
sg7
S'SPEC'
p363
sg4
S'VBG'
p364
sg8
(lp365
I71
asg10
I72
sa(dp366
g12
I74
sg6
g43
sg7
S'SPEC'
p367
sg4
S'NN'
p368
sg8
(lp369
I72
asg10
I73
sa(dp370
g12
I75
sg6
S'although'
p371
sg7
S'SPEC'
p372
sg4
S'NN'
p373
sg8
(lp374
I73
asg10
I74
sa(dp375
g12
I76
sg6
S'it'
p376
sg7
S'SPEC'
p377
sg4
S'NN'
p378
sg8
(lp379
I74
asg10
I75
sa(dp380
g12
I77
sg6
S'wo'
p381
sg7
S'SPEC'
p382
sg4
S'NN'
p383
sg8
(lp384
I75
asg10
I76
sa(dp385
g12
I78
sg6
S"n't"
p386
sg7
S'SPEC'
p387
sg4
S'NN'
p388
sg8
(lp389
I76
asg10
I77
sa(dp390
g12
I79
sg6
S'lift'
p391
sg7
S'SPEC'
p392
sg4
S'NN'
p393
sg8
(lp394
I77
asg10
I78
sa(dp395
g12
I80
sg6
S'out'
p396
sg7
S'SPEC'
p397
sg4
S'NN'
p398
sg8
(lp399
I78
asg10
I79
sa(dp400
g12
I81
sg6
S'the'
p401
sg7
S'SPEC'
p402
sg4
S'AT'
p403
sg8
(lp404
I79
asg10
I80
sa(dp405
g12
I82
sg6
S'soil'
p406
sg7
S'SPEC'
p407
sg4
S'NN'
p408
sg8
(lp409
I80
asg10
I81
sa(dp410
g12
I83
sg6
S'and'
p411
sg7
S'SPEC'
p412
sg4
S'NN'
p413
sg8
(lp414
I81
asg10
I82
sa(dp415
g12
I84
sg6
S'put'
p416
sg7
S'SPEC'
p417
sg4
S'NN'
p418
sg8
(lp419
I82
asg10
I83
sa(dp420
g12
I85
sg6
S'in'
p421
sg7
S'SPEC'
p422
sg4
S'NN'
p423
sg8
(lp424
I83
asg10
I84
sa(dp425
g12
I86
sg6
g177
sg7
S'SPEC'
p426
sg4
S'AT'
p427
sg8
(lp428
I84
asg10
I85
sa(dp429
g12
I87
sg6
S'barrow'
p430
sg7
S'SPEC'
p431
sg4
S'NN'
p432
sg8
(lp433
I85
asg10
I86
sa(dp434
g12
I88
sg6
S'if'
p435
sg7
S'SPEC'
p436
sg4
S'NN'
p437
sg8
(lp438
I86
asg10
I87
sa(dp439
g12
I89
sg6
S'you'
p440
sg7
S'SPEC'
p441
sg4
S'NN'
p442
sg8
(lp443
I87
asg10
I88
sa(dp444
g12
I90
sg6
S'need'
p445
sg7
S'SPEC'
p446
sg4
S'VBD'
p447
sg8
(lp448
I88
asg10
I89
sa(dp449
g12
I91
sg6
S'to'
p450
sg7
S'SPEC'
p451
sg4
S'NN'
p452
sg8
(lp453
I89
asg10
I90
sa(dp454
g12
I92
sg6
S'move'
p455
sg7
S'SPEC'
p456
sg4
S'NN'
p457
sg8
(lp458
I90
asg10
I91
sa(dp459
g12
I93
sg6
S'it'
p460
sg7
S'SPEC'
p461
sg4
S'NN'
p462
sg8
(lp463
I91
asg10
I92
sa(dp464
g12
I94
sg6
S'!'
p465
sg7
S'SPEC'
p466
sg4
S'NN'
p467
sg8
(lp468
I92
asg10
I93
sa(dp469
g12
I95
sg6
S'If'
p470
sg7
S'SPEC'
p471
sg4
S'NN'
p472
sg8
(lp473
I93
asg10
I94
sa(dp474
g12
I96
sg6
S'gardening'
p475
sg7
S'SPEC'
p476
sg4
S'VBG'
p477
sg8
(lp478
I94
asg10
I95
sa(dp479
g12
I97
sg6
S'tends'
p480
sg7
S'SPEC'
p481
sg4
S'NNS'
p482
sg8
(lp483
I95
asg10
I96
sa(dp484
g12
I98
sg6
S'to'
p485
sg7
S'SPEC'
p486
sg4
S'NN'
p487
sg8
(lp488
I96
asg10
I97
sa(dp489
g12
I99
sg6
S'give'
p490
sg7
S'SPEC'
p491
sg4
S'NN'
p492
sg8
(lp493
I97
asg10
I98
sa(dp494
g12
I100
sg6
S'you'
p495
sg7
S'SPEC'
p496
sg4
S'NN'
p497
sg8
(lp498
I98
asg10
I99
sa(dp499
g12
I101
sg6
S'backache'
p500
sg7
S'SPEC'
p501
sg4
S'NN'
p502
sg8
(lp503
I99
asg10
I100
sa(dp504
g12
I102
sg6
g43
sg7
S'SPEC'
p505
sg4
S'NN'
p506
sg8
(lp507
I100
asg10
I101
sa(dp508
g12
I103
sg6
S'remember'
p509
sg7
S'SPEC'
p510
sg4
S'NN'
p511
sg8
(lp512
I101
asg10
I102
sa(dp513
g12
I104
sg6
S'to'
p514
sg7
S'SPEC'
p515
sg4
S'NN'
p516
sg8
(lp517
I102
asg10
I103
sa(dp518
g12
I105
sg6
S'take'
p519
sg7
S'SPEC'
p520
sg4
S'NN'
p521
sg8
(lp522
I103
asg10
I104
sa(dp523
g12
I106
sg6
S'plenty'
p524
sg7
S'SPEC'
p525
sg4
S'NN'
p526
sg8
(lp527
I104
asg10
I105
sa(dp528
g12
I107
sg6
S'of'
p529
sg7
S'SPEC'
p530
sg4
S'NN'
p531
sg8
(lp532
I105
asg10
I106
sa(dp533
g12
I108
sg6
S'rest'
p534
sg7
S'SPEC'
p535
sg4
S'NN'
p536
sg8
(lp537
I106
asg10
I107
sa(dp538
g12
I109
sg6
S'periods'
p539
sg7
S'SPEC'
p540
sg4
S'NNS'
p541
sg8
(lp542
I107
asg10
I108
sa(dp543
g12
I110
sg6
S'during'
p544
sg7
S'SPEC'
p545
sg4
S'VBG'
p546
sg8
(lp547
I108
asg10
I109
sa(dp548
g12
I111
sg6
S'the'
p549
sg7
S'SPEC'
p550
sg4
S'AT'
p551
sg8
(lp552
I109
asg10
I110
sa(dp553
g12
I112
sg6
S'day'
p554
sg7
S'SPEC'
p555
sg4
S'NN'
p556
sg8
(lp557
I110
asg10
I111
sa(dp558
g12
I113
sg6
g43
sg7
S'SPEC'
p559
sg4
S'NN'
p560
sg8
(lp561
I111
asg10
I112
sa(dp562
g12
I114
sg6
S'and'
p563
sg7
S'SPEC'
p564
sg4
S'NN'
p565
sg8
(lp566
I112
asg10
I113
sa(dp567
g12
I115
sg6
S'never'
p568
sg7
S'SPEC'
p569
sg4
S'NN'
p570
sg8
(lp571
I113
asg10
I114
sa(dp572
g12
I116
sg6
S'try'
p573
sg7
S'SPEC'
p574
sg4
S'NN'
p575
sg8
(lp576
I114
asg10
I115
sa(dp577
g12
I117
sg6
S'to'
p578
sg7
S'SPEC'
p579
sg4
S'NN'
p580
sg8
(lp581
I115
asg10
I116
sa(dp582
g12
I118
sg6
S'lift'
p583
sg7
S'SPEC'
p584
sg4
S'NN'
p585
sg8
(lp586
I116
asg10
I117
sa(dp587
g12
I119
sg6
S'more'
p588
sg7
S'SPEC'
p589
sg4
S'NN'
p590
sg8
(lp591
I117
asg10
I118
sa(dp592
g12
I120
sg6
S'than'
p593
sg7
S'SPEC'
p594
sg4
S'NN'
p595
sg8
(lp596
I118
asg10
I119
sa(dp597
g12
I121
sg6
S'you'
p598
sg7
S'SPEC'
p599
sg4
S'NN'
p600
sg8
(lp601
I119
asg10
I120
sa(dp602
g12
I122
sg6
S'can'
p603
sg7
S'SPEC'
p604
sg4
S'NN'
p605
sg8
(lp606
I120
asg10
I121
sa(dp607
g12
I123
sg6
S'easily'
p608
sg7
S'SPEC'
p609
sg4
S'RB'
p610
sg8
(lp611
I121
asg10
I122
sa(dp612
g12
I124
sg6
S'cope'
p613
sg7
S'SPEC'
p614
sg4
S'NN'
p615
sg8
(lp616
I122
asg10
I123
sa(dp617
g12
I125
sg6
S'with'
p618
sg7
S'SPEC'
p619
sg4
S'NN'
p620
sg8
(lp621
I123
asg10
I124
sa(dp622
g12
I2
sg6
g157
sg7
S'OBJ'
p623
sg4
S'NN'
p624
sg8
(lp625
I124
asg10
I125
sas.